cnumpy.core.multiarray
_reconstruct
p1
(cnumpy
ndarray
p2
(I0
tS'b'
tRp3
(I1
(I2
tcnumpy
dtype
p4
(S'f8'
I0
I1
tRp5
(I3
S'<'
NNNI-1
I-1
I0
tbI00
S'\xe2\xcb\xef\x98X\x005\xc0\xc9\x15v3[\xe7\xff\xbf'
tb.